; Function Attrs: nounwind uwtable
define noalias nonnull ptr @l_Lake_Job_traceRoot___rarg(ptr noundef %0, ptr noundef %1) #1 {
  %3 = tail call ptr @l_Lake_BuildTrace_nil(ptr noundef %1) #8
  %4 = load ptr, ptr @l_Lake_Job_instPure___rarg___closed__1, align 8, !tbaa !10
  tail call void @lean_inc_heartbeat() #8
  %5 = tail call noalias ptr @mi_malloc_small(i64 noundef 32) #8
  %6 = icmp eq ptr %5, null
  br i1 %6, label %7, label %lean_alloc_ctor.exit

7:                                                ; preds = %2
  tail call void @lean_internal_panic_out_of_memory() #9
  unreachable

lean_alloc_ctor.exit:                             ; preds = %2
  %8 = getelementptr inbounds nuw i8, ptr %5, i64 4
  %9 = getelementptr inbounds nuw i8, ptr %5, i64 24
  store i64 0, ptr %9, align 8, !tbaa !17
  store i32 1, ptr %5, align 4, !tbaa !4
  store i32 131104, ptr %8, align 4
  %10 = getelementptr inbounds nuw i8, ptr %5, i64 8
  store ptr %4, ptr %10, align 8, !tbaa !10
  %11 = getelementptr inbounds nuw i8, ptr %5, i64 16
  store ptr %3, ptr %11, align 8, !tbaa !10
  tail call void @lean_inc_heartbeat() #8
  %12 = tail call noalias ptr @mi_malloc_small(i64 noundef 24) #8
  %13 = icmp eq ptr %12, null
  br i1 %13, label %14, label %lean_alloc_ctor.exit20

14:                                               ; preds = %lean_alloc_ctor.exit
  tail call void @lean_internal_panic_out_of_memory() #9
  unreachable

lean_alloc_ctor.exit20:                           ; preds = %lean_alloc_ctor.exit
  %15 = getelementptr inbounds nuw i8, ptr %12, i64 4
  store i32 1, ptr %12, align 4, !tbaa !4
  store i32 131096, ptr %15, align 4
  %16 = getelementptr inbounds nuw i8, ptr %12, i64 8
  store ptr %0, ptr %16, align 8, !tbaa !10
  %17 = getelementptr inbounds nuw i8, ptr %12, i64 16
  store ptr %5, ptr %17, align 8, !tbaa !10
  %18 = tail call ptr @lean_task_pure(ptr noundef nonnull %12) #8
  %19 = load ptr, ptr @l_Lake_instInhabitedJob___closed__3, align 8, !tbaa !10
  tail call void @lean_inc_heartbeat() #8
  %20 = tail call noalias ptr @mi_malloc_small(i64 noundef 40) #8
  %21 = icmp eq ptr %20, null
  br i1 %21, label %22, label %lean_alloc_ctor.exit22

22:                                               ; preds = %lean_alloc_ctor.exit20
  tail call void @lean_internal_panic_out_of_memory() #9
  unreachable

lean_alloc_ctor.exit22:                           ; preds = %lean_alloc_ctor.exit20
  %23 = getelementptr inbounds nuw i8, ptr %20, i64 4
  %24 = getelementptr inbounds nuw i8, ptr %20, i64 32
  store i64 0, ptr %24, align 8, !tbaa !17
  store i32 1, ptr %20, align 4, !tbaa !4
  store i32 196648, ptr %23, align 4
  %25 = getelementptr inbounds nuw i8, ptr %20, i64 8
  store ptr %18, ptr %25, align 8, !tbaa !10
  %26 = getelementptr inbounds nuw i8, ptr %20, i64 16
  store ptr inttoptr (i64 1 to ptr), ptr %26, align 8, !tbaa !10
  %27 = getelementptr inbounds nuw i8, ptr %20, i64 24
  store ptr %19, ptr %27, align 8, !tbaa !10
  ret ptr %20
}